target datalayout = "e-m:e-p270:32:32-p271:32:32-p272:64:64-i64:64-i128:128-f80:128-n8:16:32:64-S128"
target triple = "x86_64-pc-linux-gnu"

%struct.FFIOContext = type { %struct.AVIOContext, ptr, i32, i32, i64, i64, i64, i64, i32, i32, i32, i64 }
%struct.AVIOContext = type { ptr, ptr, i32, ptr, ptr, ptr, ptr, ptr, ptr, i64, i32, i32, i32, i32, i32, i64, ptr, ptr, ptr, ptr, i32, i32, ptr, ptr, ptr, i32, ptr, i64, i64 }

@.str.15 = private unnamed_addr constant [32 x i8] c"Failed to decrease buffer size\0A\00", align 1

; Function Attrs: alwaysinline nounwind uwtable
define internal ptr @ffiocontext(ptr noundef %0) #5 {
  %2 = alloca ptr, align 8
  store ptr %0, ptr %2, align 8, !tbaa !14
  %3 = load ptr, ptr %2, align 8, !tbaa !14
  ret ptr %3
}

; Function Attrs: nounwind uwtable
define internal i32 @read_packet_wrapper(ptr noundef %0, ptr noundef %1, i32 noundef %2) #0 {
  %4 = alloca i32, align 4
  %5 = alloca ptr, align 8
  %6 = alloca ptr, align 8
  %7 = alloca i32, align 4
  %8 = alloca i32, align 4
  %9 = alloca i32, align 4
  store ptr %0, ptr %5, align 8, !tbaa !14
  store ptr %1, ptr %6, align 8, !tbaa !9
  store i32 %2, ptr %7, align 4, !tbaa !11
  call void @llvm.lifetime.start.p0(i64 4, ptr %8) #12
  %10 = load ptr, ptr %5, align 8, !tbaa !14
  %11 = getelementptr inbounds nuw %struct.AVIOContext, ptr %10, i32 0, i32 6
  %12 = load ptr, ptr %11, align 8, !tbaa !28
  %13 = icmp ne ptr %12, null
  br i1 %13, label %15, label %14

14:                                               ; preds = %3
  store i32 -22, ptr %4, align 4
  store i32 1, ptr %9, align 4
  br label %26

15:                                               ; preds = %3
  %16 = load ptr, ptr %5, align 8, !tbaa !14
  %17 = getelementptr inbounds nuw %struct.AVIOContext, ptr %16, i32 0, i32 6
  %18 = load ptr, ptr %17, align 8, !tbaa !28
  %19 = load ptr, ptr %5, align 8, !tbaa !14
  %20 = getelementptr inbounds nuw %struct.AVIOContext, ptr %19, i32 0, i32 5
  %21 = load ptr, ptr %20, align 8, !tbaa !25
  %22 = load ptr, ptr %6, align 8, !tbaa !9
  %23 = load i32, ptr %7, align 4, !tbaa !11
  %24 = call i32 %18(ptr noundef %21, ptr noundef %22, i32 noundef %23)
  store i32 %24, ptr %8, align 4, !tbaa !11
  %25 = load i32, ptr %8, align 4, !tbaa !11
  store i32 %25, ptr %4, align 4
  store i32 1, ptr %9, align 4
  br label %26

26:                                               ; preds = %15, %14
  call void @llvm.lifetime.end.p0(i64 4, ptr %8) #12
  %27 = load i32, ptr %4, align 4
  ret i32 %27
}

; Function Attrs: nounwind uwtable
define internal void @fill_buffer(ptr noundef %0) #0 {
  %2 = alloca ptr, align 8
  %3 = alloca ptr, align 8
  %4 = alloca i32, align 4
  %5 = alloca ptr, align 8
  %6 = alloca i32, align 4
  %7 = alloca i32, align 4
  %8 = alloca i32, align 4
  store ptr %0, ptr %2, align 8, !tbaa !14
  call void @llvm.lifetime.start.p0(i64 8, ptr %3) #12
  %9 = load ptr, ptr %2, align 8, !tbaa !14
  store ptr %9, ptr %3, align 8, !tbaa !4
  call void @llvm.lifetime.start.p0(i64 4, ptr %4) #12
  %10 = load ptr, ptr %2, align 8, !tbaa !14
  %11 = getelementptr inbounds nuw %struct.AVIOContext, ptr %10, i32 0, i32 13
  %12 = load i32, ptr %11, align 4, !tbaa !35
  %13 = icmp ne i32 %12, 0
  br i1 %13, label %14, label %18

14:                                               ; preds = %1
  %15 = load ptr, ptr %2, align 8, !tbaa !14
  %16 = getelementptr inbounds nuw %struct.AVIOContext, ptr %15, i32 0, i32 13
  %17 = load i32, ptr %16, align 4, !tbaa !35
  br label %19

18:                                               ; preds = %1
  br label %19

19:                                               ; preds = %18, %14
  %20 = phi i32 [ %17, %14 ], [ 32768, %18 ]
  store i32 %20, ptr %4, align 4, !tbaa !11
  call void @llvm.lifetime.start.p0(i64 8, ptr %5) #12
  %21 = load ptr, ptr %2, align 8, !tbaa !14
  %22 = getelementptr inbounds nuw %struct.AVIOContext, ptr %21, i32 0, i32 4
  %23 = load ptr, ptr %22, align 8, !tbaa !38
  %24 = load ptr, ptr %2, align 8, !tbaa !14
  %25 = getelementptr inbounds nuw %struct.AVIOContext, ptr %24, i32 0, i32 1
  %26 = load ptr, ptr %25, align 8, !tbaa !16
  %27 = ptrtoint ptr %23 to i64
  %28 = ptrtoint ptr %26 to i64
  %29 = sub i64 %27, %28
  %30 = load i32, ptr %4, align 4, !tbaa !11
  %31 = sext i32 %30 to i64
  %32 = add nsw i64 %29, %31
  %33 = load ptr, ptr %2, align 8, !tbaa !14
  %34 = getelementptr inbounds nuw %struct.AVIOContext, ptr %33, i32 0, i32 2
  %35 = load i32, ptr %34, align 8, !tbaa !20
  %36 = sext i32 %35 to i64
  %37 = icmp sle i64 %32, %36
  br i1 %37, label %38, label %42

38:                                               ; preds = %19
  %39 = load ptr, ptr %2, align 8, !tbaa !14
  %40 = getelementptr inbounds nuw %struct.AVIOContext, ptr %39, i32 0, i32 4
  %41 = load ptr, ptr %40, align 8, !tbaa !38
  br label %46

42:                                               ; preds = %19
  %43 = load ptr, ptr %2, align 8, !tbaa !14
  %44 = getelementptr inbounds nuw %struct.AVIOContext, ptr %43, i32 0, i32 1
  %45 = load ptr, ptr %44, align 8, !tbaa !16
  br label %46

46:                                               ; preds = %42, %38
  %47 = phi ptr [ %41, %38 ], [ %45, %42 ]
  store ptr %47, ptr %5, align 8, !tbaa !9
  call void @llvm.lifetime.start.p0(i64 4, ptr %6) #12
  %48 = load ptr, ptr %2, align 8, !tbaa !14
  %49 = getelementptr inbounds nuw %struct.AVIOContext, ptr %48, i32 0, i32 2
  %50 = load i32, ptr %49, align 8, !tbaa !20
  %51 = sext i32 %50 to i64
  %52 = load ptr, ptr %5, align 8, !tbaa !9
  %53 = load ptr, ptr %2, align 8, !tbaa !14
  %54 = getelementptr inbounds nuw %struct.AVIOContext, ptr %53, i32 0, i32 1
  %55 = load ptr, ptr %54, align 8, !tbaa !16
  %56 = ptrtoint ptr %52 to i64
  %57 = ptrtoint ptr %55 to i64
  %58 = sub i64 %56, %57
  %59 = sub nsw i64 %51, %58
  %60 = trunc i64 %59 to i32
  store i32 %60, ptr %6, align 4, !tbaa !11
  %61 = load ptr, ptr %2, align 8, !tbaa !14
  %62 = getelementptr inbounds nuw %struct.AVIOContext, ptr %61, i32 0, i32 6
  %63 = load ptr, ptr %62, align 8, !tbaa !28
  %64 = icmp ne ptr %63, null
  br i1 %64, label %76, label %65

65:                                               ; preds = %46
  %66 = load ptr, ptr %2, align 8, !tbaa !14
  %67 = getelementptr inbounds nuw %struct.AVIOContext, ptr %66, i32 0, i32 3
  %68 = load ptr, ptr %67, align 8, !tbaa !23
  %69 = load ptr, ptr %2, align 8, !tbaa !14
  %70 = getelementptr inbounds nuw %struct.AVIOContext, ptr %69, i32 0, i32 4
  %71 = load ptr, ptr %70, align 8, !tbaa !38
  %72 = icmp uge ptr %68, %71
  br i1 %72, label %73, label %76

73:                                               ; preds = %65
  %74 = load ptr, ptr %2, align 8, !tbaa !14
  %75 = getelementptr inbounds nuw %struct.AVIOContext, ptr %74, i32 0, i32 10
  store i32 1, ptr %75, align 8, !tbaa !31
  br label %76

76:                                               ; preds = %73, %65, %46
  %77 = load ptr, ptr %2, align 8, !tbaa !14
  %78 = getelementptr inbounds nuw %struct.AVIOContext, ptr %77, i32 0, i32 10
  %79 = load i32, ptr %78, align 8, !tbaa !31
  %80 = icmp ne i32 %79, 0
  br i1 %80, label %81, label %82

81:                                               ; preds = %76
  store i32 1, ptr %7, align 4
  br label %236

82:                                               ; preds = %76
  %83 = load ptr, ptr %2, align 8, !tbaa !14
  %84 = getelementptr inbounds nuw %struct.AVIOContext, ptr %83, i32 0, i32 17
  %85 = load ptr, ptr %84, align 8, !tbaa !36
  %86 = icmp ne ptr %85, null
  br i1 %86, label %87, label %130

87:                                               ; preds = %82
  %88 = load ptr, ptr %5, align 8, !tbaa !9
  %89 = load ptr, ptr %2, align 8, !tbaa !14
  %90 = getelementptr inbounds nuw %struct.AVIOContext, ptr %89, i32 0, i32 1
  %91 = load ptr, ptr %90, align 8, !tbaa !16
  %92 = icmp eq ptr %88, %91
  br i1 %92, label %93, label %130

93:                                               ; preds = %87
  %94 = load ptr, ptr %2, align 8, !tbaa !14
  %95 = getelementptr inbounds nuw %struct.AVIOContext, ptr %94, i32 0, i32 4
  %96 = load ptr, ptr %95, align 8, !tbaa !38
  %97 = load ptr, ptr %2, align 8, !tbaa !14
  %98 = getelementptr inbounds nuw %struct.AVIOContext, ptr %97, i32 0, i32 16
  %99 = load ptr, ptr %98, align 8, !tbaa !52
  %100 = icmp ugt ptr %96, %99
  br i1 %100, label %101, label %124

101:                                              ; preds = %93
  %102 = load ptr, ptr %2, align 8, !tbaa !14
  %103 = getelementptr inbounds nuw %struct.AVIOContext, ptr %102, i32 0, i32 17
  %104 = load ptr, ptr %103, align 8, !tbaa !36
  %105 = load ptr, ptr %2, align 8, !tbaa !14
  %106 = getelementptr inbounds nuw %struct.AVIOContext, ptr %105, i32 0, i32 15
  %107 = load i64, ptr %106, align 8, !tbaa !51
  %108 = load ptr, ptr %2, align 8, !tbaa !14
  %109 = getelementptr inbounds nuw %struct.AVIOContext, ptr %108, i32 0, i32 16
  %110 = load ptr, ptr %109, align 8, !tbaa !52
  %111 = load ptr, ptr %2, align 8, !tbaa !14
  %112 = getelementptr inbounds nuw %struct.AVIOContext, ptr %111, i32 0, i32 4
  %113 = load ptr, ptr %112, align 8, !tbaa !38
  %114 = load ptr, ptr %2, align 8, !tbaa !14
  %115 = getelementptr inbounds nuw %struct.AVIOContext, ptr %114, i32 0, i32 16
  %116 = load ptr, ptr %115, align 8, !tbaa !52
  %117 = ptrtoint ptr %113 to i64
  %118 = ptrtoint ptr %116 to i64
  %119 = sub i64 %117, %118
  %120 = trunc i64 %119 to i32
  %121 = call i64 %104(i64 noundef %107, ptr noundef %110, i32 noundef %120)
  %122 = load ptr, ptr %2, align 8, !tbaa !14
  %123 = getelementptr inbounds nuw %struct.AVIOContext, ptr %122, i32 0, i32 15
  store i64 %121, ptr %123, align 8, !tbaa !51
  br label %124

124:                                              ; preds = %101, %93
  %125 = load ptr, ptr %2, align 8, !tbaa !14
  %126 = getelementptr inbounds nuw %struct.AVIOContext, ptr %125, i32 0, i32 1
  %127 = load ptr, ptr %126, align 8, !tbaa !16
  %128 = load ptr, ptr %2, align 8, !tbaa !14
  %129 = getelementptr inbounds nuw %struct.AVIOContext, ptr %128, i32 0, i32 16
  store ptr %127, ptr %129, align 8, !tbaa !52
  br label %130

130:                                              ; preds = %124, %87, %82
  %131 = load ptr, ptr %2, align 8, !tbaa !14
  %132 = getelementptr inbounds nuw %struct.AVIOContext, ptr %131, i32 0, i32 6
  %133 = load ptr, ptr %132, align 8, !tbaa !28
  %134 = icmp ne ptr %133, null
  br i1 %134, label %135, label %186

135:                                              ; preds = %130
  %136 = load ptr, ptr %3, align 8, !tbaa !4
  %137 = getelementptr inbounds nuw %struct.FFIOContext, ptr %136, i32 0, i32 10
  %138 = load i32, ptr %137, align 8, !tbaa !21
  %139 = icmp ne i32 %138, 0
  br i1 %139, label %140, label %186

140:                                              ; preds = %135
  %141 = load ptr, ptr %2, align 8, !tbaa !14
  %142 = getelementptr inbounds nuw %struct.AVIOContext, ptr %141, i32 0, i32 2
  %143 = load i32, ptr %142, align 8, !tbaa !20
  %144 = load ptr, ptr %3, align 8, !tbaa !4
  %145 = getelementptr inbounds nuw %struct.FFIOContext, ptr %144, i32 0, i32 10
  %146 = load i32, ptr %145, align 8, !tbaa !21
  %147 = icmp sgt i32 %143, %146
  br i1 %147, label %148, label %186

148:                                              ; preds = %140
  %149 = load i32, ptr %6, align 4, !tbaa !11
  %150 = load ptr, ptr %3, align 8, !tbaa !4
  %151 = getelementptr inbounds nuw %struct.FFIOContext, ptr %150, i32 0, i32 10
  %152 = load i32, ptr %151, align 8, !tbaa !21
  %153 = icmp sge i32 %149, %152
  br i1 %153, label %154, label %186

154:                                              ; preds = %148
  %155 = load ptr, ptr %5, align 8, !tbaa !9
  %156 = load ptr, ptr %2, align 8, !tbaa !14
  %157 = getelementptr inbounds nuw %struct.AVIOContext, ptr %156, i32 0, i32 1
  %158 = load ptr, ptr %157, align 8, !tbaa !16
  %159 = icmp eq ptr %155, %158
  br i1 %159, label %160, label %182

160:                                              ; preds = %154
  %161 = load ptr, ptr %2, align 8, !tbaa !14
  %162 = getelementptr inbounds nuw %struct.AVIOContext, ptr %161, i32 0, i32 3
  %163 = load ptr, ptr %162, align 8, !tbaa !23
  %164 = load ptr, ptr %5, align 8, !tbaa !9
  %165 = icmp ne ptr %163, %164
  br i1 %165, label %166, label %182

166:                                              ; preds = %160
  call void @llvm.lifetime.start.p0(i64 4, ptr %8) #12
  %167 = load ptr, ptr %2, align 8, !tbaa !14
  %168 = load ptr, ptr %3, align 8, !tbaa !4
  %169 = getelementptr inbounds nuw %struct.FFIOContext, ptr %168, i32 0, i32 10
  %170 = load i32, ptr %169, align 8, !tbaa !21
  %171 = call i32 @set_buf_size(ptr noundef %167, i32 noundef %170)
  store i32 %171, ptr %8, align 4, !tbaa !11
  %172 = load i32, ptr %8, align 4, !tbaa !11
  %173 = icmp slt i32 %172, 0
  br i1 %173, label %174, label %176

174:                                              ; preds = %166
  %175 = load ptr, ptr %2, align 8, !tbaa !14
  call void (ptr, i32, ptr, ...) @av_log(ptr noundef %175, i32 noundef 24, ptr noundef @.str.15)
  br label %176

176:                                              ; preds = %174, %166
  %177 = load ptr, ptr %2, align 8, !tbaa !14
  %178 = getelementptr inbounds nuw %struct.AVIOContext, ptr %177, i32 0, i32 1
  %179 = load ptr, ptr %178, align 8, !tbaa !16
  store ptr %179, ptr %5, align 8, !tbaa !9
  %180 = load ptr, ptr %2, align 8, !tbaa !14
  %181 = getelementptr inbounds nuw %struct.AVIOContext, ptr %180, i32 0, i32 16
  store ptr %179, ptr %181, align 8, !tbaa !52
  call void @llvm.lifetime.end.p0(i64 4, ptr %8) #12
  br label %182

182:                                              ; preds = %176, %160, %154
  %183 = load ptr, ptr %3, align 8, !tbaa !4
  %184 = getelementptr inbounds nuw %struct.FFIOContext, ptr %183, i32 0, i32 10
  %185 = load i32, ptr %184, align 8, !tbaa !21
  store i32 %185, ptr %6, align 4, !tbaa !11
  br label %186

186:                                              ; preds = %182, %148, %140, %135, %130
  %187 = load ptr, ptr %2, align 8, !tbaa !14
  %188 = load ptr, ptr %5, align 8, !tbaa !9
  %189 = load i32, ptr %6, align 4, !tbaa !11
  %190 = call i32 @read_packet_wrapper(ptr noundef %187, ptr noundef %188, i32 noundef %189)
  store i32 %190, ptr %6, align 4, !tbaa !11
  %191 = load i32, ptr %6, align 4, !tbaa !11
  %192 = icmp eq i32 %191, -541478725
  br i1 %192, label %193, label %196

193:                                              ; preds = %186
  %194 = load ptr, ptr %2, align 8, !tbaa !14
  %195 = getelementptr inbounds nuw %struct.AVIOContext, ptr %194, i32 0, i32 10
  store i32 1, ptr %195, align 8, !tbaa !31
  br label %235

196:                                              ; preds = %186
  %197 = load i32, ptr %6, align 4, !tbaa !11
  %198 = icmp slt i32 %197, 0
  br i1 %198, label %199, label %205

199:                                              ; preds = %196
  %200 = load ptr, ptr %2, align 8, !tbaa !14
  %201 = getelementptr inbounds nuw %struct.AVIOContext, ptr %200, i32 0, i32 10
  store i32 1, ptr %201, align 8, !tbaa !31
  %202 = load i32, ptr %6, align 4, !tbaa !11
  %203 = load ptr, ptr %2, align 8, !tbaa !14
  %204 = getelementptr inbounds nuw %struct.AVIOContext, ptr %203, i32 0, i32 11
  store i32 %202, ptr %204, align 4, !tbaa !32
  br label %234

205:                                              ; preds = %196
  %206 = load i32, ptr %6, align 4, !tbaa !11
  %207 = sext i32 %206 to i64
  %208 = load ptr, ptr %2, align 8, !tbaa !14
  %209 = getelementptr inbounds nuw %struct.AVIOContext, ptr %208, i32 0, i32 9
  %210 = load i64, ptr %209, align 8, !tbaa !30
  %211 = add nsw i64 %210, %207
  store i64 %211, ptr %209, align 8, !tbaa !30
  %212 = load ptr, ptr %5, align 8, !tbaa !9
  %213 = load ptr, ptr %2, align 8, !tbaa !14
  %214 = getelementptr inbounds nuw %struct.AVIOContext, ptr %213, i32 0, i32 3
  store ptr %212, ptr %214, align 8, !tbaa !23
  %215 = load ptr, ptr %5, align 8, !tbaa !9
  %216 = load i32, ptr %6, align 4, !tbaa !11
  %217 = sext i32 %216 to i64
  %218 = getelementptr inbounds i8, ptr %215, i64 %217
  %219 = load ptr, ptr %2, align 8, !tbaa !14
  %220 = getelementptr inbounds nuw %struct.AVIOContext, ptr %219, i32 0, i32 4
  store ptr %218, ptr %220, align 8, !tbaa !38
  %221 = load i32, ptr %6, align 4, !tbaa !11
  %222 = sext i32 %221 to i64
  %223 = load ptr, ptr %2, align 8, !tbaa !14
  %224 = call ptr @ffiocontext(ptr noundef %223)
  %225 = getelementptr inbounds nuw %struct.FFIOContext, ptr %224, i32 0, i32 6
  %226 = load i64, ptr %225, align 8, !tbaa !63
  %227 = add nsw i64 %226, %222
  store i64 %227, ptr %225, align 8, !tbaa !63
  %228 = load ptr, ptr %2, align 8, !tbaa !14
  %229 = call ptr @ffiocontext(ptr noundef %228)
  %230 = getelementptr inbounds nuw %struct.FFIOContext, ptr %229, i32 0, i32 6
  %231 = load i64, ptr %230, align 8, !tbaa !63
  %232 = load ptr, ptr %2, align 8, !tbaa !14
  %233 = getelementptr inbounds nuw %struct.AVIOContext, ptr %232, i32 0, i32 27
  store i64 %231, ptr %233, align 8, !tbaa !64
  br label %234

234:                                              ; preds = %205, %199
  br label %235

235:                                              ; preds = %234, %193
  store i32 0, ptr %7, align 4
  br label %236

236:                                              ; preds = %235, %81
  call void @llvm.lifetime.end.p0(i64 4, ptr %6) #12
  call void @llvm.lifetime.end.p0(i64 8, ptr %5) #12
  call void @llvm.lifetime.end.p0(i64 4, ptr %4) #12
  call void @llvm.lifetime.end.p0(i64 8, ptr %3) #12
  %237 = load i32, ptr %7, align 4
  switch i32 %237, label %239 [
    i32 0, label %238
    i32 1, label %238
  ]

238:                                              ; preds = %236, %236
  ret void

239:                                              ; preds = %236
  unreachable
}