; Function Attrs: nounwind uwtable
define internal fastcc void @fill_buffer(ptr noundef %0) unnamed_addr #3 {
  %2 = getelementptr inbounds nuw i8, ptr %0, i64 92
  %3 = load i32, ptr %2, align 4, !tbaa !25
  %.not = icmp eq i32 %3, 0
  %narrow = select i1 %.not, i32 32768, i32 %3
  %spec.select = sext i32 %narrow to i64
  %4 = getelementptr inbounds nuw i8, ptr %0, i64 32
  %5 = load ptr, ptr %4, align 8, !tbaa !19
  %6 = getelementptr inbounds nuw i8, ptr %0, i64 8
  %7 = load ptr, ptr %6, align 8, !tbaa !4
  %8 = ptrtoint ptr %5 to i64
  %9 = ptrtoint ptr %7 to i64
  %10 = sub i64 %8, %9
  %11 = add nsw i64 %10, %spec.select
  %12 = getelementptr inbounds nuw i8, ptr %0, i64 16
  %13 = load i32, ptr %12, align 8, !tbaa !13
  %14 = sext i32 %13 to i64
  %.not76 = icmp sgt i64 %11, %14
  %15 = select i1 %.not76, ptr %7, ptr %5
  %16 = ptrtoint ptr %15 to i64
  %.neg = sub i64 %9, %16
  %17 = trunc i64 %.neg to i32
  %18 = add i32 %13, %17
  %19 = getelementptr inbounds nuw i8, ptr %0, i64 48
  %20 = load ptr, ptr %19, align 8, !tbaa !22
  %.not77 = icmp eq ptr %20, null
  br i1 %.not77, label %21, label %26

21:                                               ; preds = %1
  %22 = getelementptr inbounds nuw i8, ptr %0, i64 24
  %23 = load ptr, ptr %22, align 8, !tbaa !16
  %.not78 = icmp ult ptr %23, %5
  br i1 %.not78, label %26, label %24

24:                                               ; preds = %21
  %25 = getelementptr inbounds nuw i8, ptr %0, i64 80
  store i32 1, ptr %25, align 8, !tbaa !46
  br label %26

26:                                               ; preds = %24, %21, %1
  %27 = getelementptr inbounds nuw i8, ptr %0, i64 80
  %28 = load i32, ptr %27, align 8, !tbaa !46
  %.not79 = icmp eq i32 %28, 0
  br i1 %.not79, label %29, label %86

29:                                               ; preds = %26
  %30 = getelementptr inbounds nuw i8, ptr %0, i64 120
  %31 = load ptr, ptr %30, align 8, !tbaa !39
  %.not80 = icmp ne ptr %31, null
  %32 = icmp eq ptr %15, %7
  %or.cond97 = select i1 %.not80, i1 %32, i1 false
  br i1 %or.cond97, label %33, label %46

33:                                               ; preds = %29
  %34 = getelementptr inbounds nuw i8, ptr %0, i64 112
  %35 = load ptr, ptr %34, align 8, !tbaa !41
  %36 = icmp ugt ptr %5, %35
  br i1 %36, label %37, label %44

37:                                               ; preds = %33
  %38 = getelementptr inbounds nuw i8, ptr %0, i64 104
  %39 = load i64, ptr %38, align 8, !tbaa !40
  %40 = ptrtoint ptr %35 to i64
  %41 = sub i64 %8, %40
  %42 = trunc i64 %41 to i32
  %43 = tail call i64 %31(i64 noundef %39, ptr noundef %35, i32 noundef %42) #14
  store i64 %43, ptr %38, align 8, !tbaa !40
  %.pre = load ptr, ptr %6, align 8, !tbaa !4
  %.pre99.pre = load ptr, ptr %19, align 8, !tbaa !22
  br label %44

44:                                               ; preds = %37, %33
  %.pre99 = phi ptr [ %.pre99.pre, %37 ], [ %20, %33 ]
  %45 = phi ptr [ %.pre, %37 ], [ %7, %33 ]
  store ptr %45, ptr %34, align 8, !tbaa !41
  br label %46

46:                                               ; preds = %44, %29
  %47 = phi ptr [ %45, %44 ], [ %7, %29 ]
  %48 = phi ptr [ %.pre99, %44 ], [ %20, %29 ]
  %.not81 = icmp eq ptr %48, null
  br i1 %.not81, label %.thread93, label %49

49:                                               ; preds = %46
  %50 = getelementptr inbounds nuw i8, ptr %0, i64 264
  %51 = load i32, ptr %50, align 8, !tbaa !14
  %.not82 = icmp eq i32 %51, 0
  br i1 %.not82, label %read_packet_wrapper.exit, label %52

52:                                               ; preds = %49
  %53 = load i32, ptr %12, align 8, !tbaa !13
  %54 = icmp sle i32 %53, %51
  %.not83 = icmp slt i32 %18, %51
  %or.cond = select i1 %54, i1 true, i1 %.not83
  br i1 %or.cond, label %read_packet_wrapper.exit, label %55

55:                                               ; preds = %52
  %56 = icmp eq ptr %15, %47
  br i1 %56, label %57, label %read_packet_wrapper.exit

57:                                               ; preds = %55
  %58 = getelementptr inbounds nuw i8, ptr %0, i64 24
  %59 = load ptr, ptr %58, align 8, !tbaa !16
  %.not84 = icmp eq ptr %59, %15
  br i1 %.not84, label %read_packet_wrapper.exit, label %60

60:                                               ; preds = %57
  %61 = tail call fastcc i32 @set_buf_size(ptr noundef nonnull %0, i32 noundef %51)
  %62 = icmp slt i32 %61, 0
  br i1 %62, label %63, label %64

63:                                               ; preds = %60
  tail call void (ptr, i32, ptr, ...) @av_log(ptr noundef nonnull %0, i32 noundef 24, ptr noundef nonnull @.str.15) #14
  br label %64

64:                                               ; preds = %60, %63
  %65 = load ptr, ptr %6, align 8, !tbaa !4
  %66 = getelementptr inbounds nuw i8, ptr %0, i64 112
  store ptr %65, ptr %66, align 8, !tbaa !41
  %.pre100 = load i32, ptr %50, align 8, !tbaa !14
  %.pr.pre.pre = load ptr, ptr %19, align 8, !tbaa !22
  %.not.i = icmp eq ptr %.pr.pre.pre, null
  br i1 %.not.i, label %.thread93, label %read_packet_wrapper.exit

read_packet_wrapper.exit:                         ; preds = %55, %57, %52, %49, %64
  %.0.ph110 = phi ptr [ %65, %64 ], [ %15, %49 ], [ %15, %52 ], [ %15, %57 ], [ %15, %55 ]
  %.066.ph109 = phi i32 [ %.pre100, %64 ], [ %18, %49 ], [ %18, %52 ], [ %51, %57 ], [ %51, %55 ]
  %.pr108 = phi ptr [ %.pr.pre.pre, %64 ], [ %48, %49 ], [ %48, %52 ], [ %48, %57 ], [ %48, %55 ]
  %67 = getelementptr inbounds nuw i8, ptr %0, i64 40
  %68 = load ptr, ptr %67, align 8, !tbaa !18
  %69 = tail call i32 %.pr108(ptr noundef %68, ptr noundef %.0.ph110, i32 noundef %.066.ph109) #14
  %70 = icmp eq i32 %69, -541478725
  br i1 %70, label %71, label %72

71:                                               ; preds = %read_packet_wrapper.exit
  store i32 1, ptr %27, align 8, !tbaa !46
  br label %86

72:                                               ; preds = %read_packet_wrapper.exit
  %73 = icmp slt i32 %69, 0
  br i1 %73, label %.thread93, label %75

.thread93:                                        ; preds = %64, %46, %72
  %.0.i9296 = phi i32 [ %69, %72 ], [ -22, %46 ], [ -22, %64 ]
  store i32 1, ptr %27, align 8, !tbaa !46
  %74 = getelementptr inbounds nuw i8, ptr %0, i64 84
  store i32 %.0.i9296, ptr %74, align 4, !tbaa !34
  br label %86

75:                                               ; preds = %72
  %76 = zext nneg i32 %69 to i64
  %77 = getelementptr inbounds nuw i8, ptr %0, i64 72
  %78 = load i64, ptr %77, align 8, !tbaa !27
  %79 = add nsw i64 %78, %76
  store i64 %79, ptr %77, align 8, !tbaa !27
  %80 = getelementptr inbounds nuw i8, ptr %0, i64 24
  store ptr %.0.ph110, ptr %80, align 8, !tbaa !16
  %81 = getelementptr inbounds nuw i8, ptr %.0.ph110, i64 %76
  store ptr %81, ptr %4, align 8, !tbaa !19
  %82 = getelementptr inbounds nuw i8, ptr %0, i64 240
  %83 = load i64, ptr %82, align 8, !tbaa !49
  %84 = add nsw i64 %83, %76
  store i64 %84, ptr %82, align 8, !tbaa !49
  %85 = getelementptr inbounds nuw i8, ptr %0, i64 192
  store i64 %84, ptr %85, align 8, !tbaa !50
  br label %86

86:                                               ; preds = %71, %75, %.thread93, %26
  ret void
}